target datalayout = "e-m:e-p270:32:32-p271:32:32-p272:64:64-i64:64-i128:128-f80:128-n8:16:32:64-S128"
target triple = "x86_64-pc-linux-gnu"

%"class.pxrInternal_v0_24__pxrReserved__::GfRange1f" = type { float, float }

; Function Attrs: mustprogress nounwind uwtable
define linkonce_odr noundef double @_ZN32pxrInternal_v0_24__pxrReserved__5GfSqrIfEEdRKT_(ptr noundef nonnull align 4 dereferenceable(4) %0) #2 comdat {
  %2 = alloca ptr, align 8
  store ptr %0, ptr %2, align 8
  %3 = load ptr, ptr %2, align 8
  %4 = load float, ptr %3, align 4
  %5 = load ptr, ptr %2, align 8
  %6 = load float, ptr %5, align 4
  %7 = fmul float %4, %6
  %8 = fpext float %7 to double
  ret double %8
}

; Function Attrs: mustprogress uwtable
define noundef double @_ZNK32pxrInternal_v0_24__pxrReserved__9GfRange1f18GetDistanceSquaredEf(ptr noundef nonnull align 4 dereferenceable(8) %0, float noundef %1) #0 align 2 {
  %3 = alloca ptr, align 8
  %4 = alloca float, align 4
  %5 = alloca double, align 8
  %6 = alloca float, align 4
  %7 = alloca float, align 4
  store ptr %0, ptr %3, align 8
  store float %1, ptr %4, align 4
  %8 = load ptr, ptr %3, align 8
  store double 0.000000e+00, ptr %5, align 8
  %9 = load float, ptr %4, align 4
  %10 = getelementptr inbounds nuw %"class.pxrInternal_v0_24__pxrReserved__::GfRange1f", ptr %8, i32 0, i32 0
  %11 = load float, ptr %10, align 4
  %12 = fcmp olt float %9, %11
  br i1 %12, label %13, label %21

13:                                               ; preds = %2
  %14 = getelementptr inbounds nuw %"class.pxrInternal_v0_24__pxrReserved__::GfRange1f", ptr %8, i32 0, i32 0
  %15 = load float, ptr %14, align 4
  %16 = load float, ptr %4, align 4
  %17 = fsub float %15, %16
  store float %17, ptr %6, align 4
  %18 = call noundef double @_ZN32pxrInternal_v0_24__pxrReserved__5GfSqrIfEEdRKT_(ptr noundef nonnull align 4 dereferenceable(4) %6)
  %19 = load double, ptr %5, align 8
  %20 = fadd double %19, %18
  store double %20, ptr %5, align 8
  br label %35

21:                                               ; preds = %2
  %22 = load float, ptr %4, align 4
  %23 = getelementptr inbounds nuw %"class.pxrInternal_v0_24__pxrReserved__::GfRange1f", ptr %8, i32 0, i32 1
  %24 = load float, ptr %23, align 4
  %25 = fcmp ogt float %22, %24
  br i1 %25, label %26, label %34

26:                                               ; preds = %21
  %27 = load float, ptr %4, align 4
  %28 = getelementptr inbounds nuw %"class.pxrInternal_v0_24__pxrReserved__::GfRange1f", ptr %8, i32 0, i32 1
  %29 = load float, ptr %28, align 4
  %30 = fsub float %27, %29
  store float %30, ptr %7, align 4
  %31 = call noundef double @_ZN32pxrInternal_v0_24__pxrReserved__5GfSqrIfEEdRKT_(ptr noundef nonnull align 4 dereferenceable(4) %7)
  %32 = load double, ptr %5, align 8
  %33 = fadd double %32, %31
  store double %33, ptr %5, align 8
  br label %34

34:                                               ; preds = %26, %21
  br label %35

35:                                               ; preds = %34, %13
  %36 = load double, ptr %5, align 8
  ret double %36
}