; Function Attrs: mustprogress nofree norecurse nosync nounwind willreturn memory(argmem: read) uwtable
define noundef double @_ZNK32pxrInternal_v0_24__pxrReserved__9GfRange1f18GetDistanceSquaredEf(ptr nocapture noundef nonnull readonly align 4 dereferenceable(8) %0, float noundef %1) local_unnamed_addr #3 align 2 {
  %3 = load float, ptr %0, align 4
  %4 = fcmp olt float %1, %3
  br i1 %4, label %5, label %9

5:                                                ; preds = %2
  %6 = fsub float %3, %1
  %7 = fmul float %6, %6
  %8 = fpext float %7 to double
  br label %17

9:                                                ; preds = %2
  %10 = getelementptr inbounds nuw i8, ptr %0, i64 4
  %11 = load float, ptr %10, align 4
  %12 = fcmp ogt float %1, %11
  br i1 %12, label %13, label %17

13:                                               ; preds = %9
  %14 = fsub float %1, %11
  %15 = fmul float %14, %14
  %16 = fpext float %15 to double
  br label %17

17:                                               ; preds = %9, %13, %5
  %.0 = phi double [ %8, %5 ], [ %16, %13 ], [ 0.000000e+00, %9 ]
  ret double %.0
}